target datalayout = "e-m:e-p270:32:32-p271:32:32-p272:64:64-i64:64-i128:128-f80:128-n8:16:32:64-S128"
target triple = "x86_64-pc-linux-gnu"

%class.BigInteger = type { i32, %class.BigUnsigned }
%class.BigUnsigned = type { %class.NumberlikeArray }
%class.NumberlikeArray = type { i32, i32, ptr }

@_ZTIPKc = external constant ptr
@.str.8 = private unnamed_addr constant [73 x i8] c"BigInteger::to<Primitive>: Value is too big to fit in the requested type\00", align 1

; Function Attrs: mustprogress nounwind uwtable
define linkonce_odr noundef i64 @_ZNK11BigUnsigned8getBlockEj(ptr noundef nonnull align 8 dereferenceable(16) %0, i32 noundef %1) #1 comdat align 2 {
  %3 = alloca ptr, align 8
  %4 = alloca i32, align 4
  store ptr %0, ptr %3, align 8, !tbaa !18
  store i32 %1, ptr %4, align 4, !tbaa !21
  %5 = load ptr, ptr %3, align 8
  %6 = load i32, ptr %4, align 4, !tbaa !21
  %7 = getelementptr inbounds nuw %class.NumberlikeArray, ptr %5, i32 0, i32 1
  %8 = load i32, ptr %7, align 4, !tbaa !32
  %9 = icmp uge i32 %6, %8
  br i1 %9, label %10, label %11

10:                                               ; preds = %2
  br label %18

11:                                               ; preds = %2
  %12 = getelementptr inbounds nuw %class.NumberlikeArray, ptr %5, i32 0, i32 2
  %13 = load ptr, ptr %12, align 8, !tbaa !27
  %14 = load i32, ptr %4, align 4, !tbaa !21
  %15 = zext i32 %14 to i64
  %16 = getelementptr inbounds nuw i64, ptr %13, i64 %15
  %17 = load i64, ptr %16, align 8, !tbaa !28
  br label %18

18:                                               ; preds = %11, %10
  %19 = phi i64 [ 0, %10 ], [ %17, %11 ]
  ret i64 %19
}

; Function Attrs: mustprogress nounwind uwtable
define linkonce_odr noundef i32 @_ZNK15NumberlikeArrayImE9getLengthEv(ptr noundef nonnull align 8 dereferenceable(16) %0) #1 comdat align 2 {
  %2 = alloca ptr, align 8
  store ptr %0, ptr %2, align 8, !tbaa !25
  %3 = load ptr, ptr %2, align 8
  %4 = getelementptr inbounds nuw %class.NumberlikeArray, ptr %3, i32 0, i32 1
  %5 = load i32, ptr %4, align 4, !tbaa !32
  ret i32 %5
}

; Function Attrs: mustprogress uwtable
define linkonce_odr noundef i32 @_ZNK10BigInteger24convertToSignedPrimitiveIijEET_v(ptr noundef nonnull align 8 dereferenceable(24) %0) #0 comdat align 2 {
  %2 = alloca i32, align 4
  %3 = alloca ptr, align 8
  %4 = alloca i64, align 8
  %5 = alloca i32, align 4
  %6 = alloca i32, align 4
  %7 = alloca i32, align 4
  store ptr %0, ptr %3, align 8, !tbaa !6
  %8 = load ptr, ptr %3, align 8
  %9 = getelementptr inbounds nuw %class.BigInteger, ptr %8, i32 0, i32 0
  %10 = load i32, ptr %9, align 8, !tbaa !11
  %11 = icmp eq i32 %10, 0
  br i1 %11, label %12, label %13

12:                                               ; preds = %1
  store i32 0, ptr %2, align 4
  br label %64

13:                                               ; preds = %1
  %14 = getelementptr inbounds nuw %class.BigInteger, ptr %8, i32 0, i32 1
  %15 = call noundef i32 @_ZNK15NumberlikeArrayImE9getLengthEv(ptr noundef nonnull align 8 dereferenceable(16) %14)
  %16 = icmp eq i32 %15, 1
  br i1 %16, label %17, label %61

17:                                               ; preds = %13
  call void @llvm.lifetime.start.p0(i64 8, ptr %4) #9
  %18 = getelementptr inbounds nuw %class.BigInteger, ptr %8, i32 0, i32 1
  %19 = call noundef i64 @_ZNK11BigUnsigned8getBlockEj(ptr noundef nonnull align 8 dereferenceable(16) %18, i32 noundef 0)
  store i64 %19, ptr %4, align 8, !tbaa !28
  %20 = getelementptr inbounds nuw %class.BigInteger, ptr %8, i32 0, i32 0
  %21 = load i32, ptr %20, align 8, !tbaa !11
  %22 = icmp eq i32 %21, 1
  br i1 %22, label %23, label %39

23:                                               ; preds = %17
  call void @llvm.lifetime.start.p0(i64 4, ptr %5) #9
  %24 = load i64, ptr %4, align 8, !tbaa !28
  %25 = trunc i64 %24 to i32
  store i32 %25, ptr %5, align 4, !tbaa !21
  %26 = load i32, ptr %5, align 4, !tbaa !21
  %27 = icmp sge i32 %26, 0
  br i1 %27, label %28, label %35

28:                                               ; preds = %23
  %29 = load i32, ptr %5, align 4, !tbaa !21
  %30 = sext i32 %29 to i64
  %31 = load i64, ptr %4, align 8, !tbaa !28
  %32 = icmp eq i64 %30, %31
  br i1 %32, label %33, label %35

33:                                               ; preds = %28
  %34 = load i32, ptr %5, align 4, !tbaa !21
  store i32 %34, ptr %2, align 4
  store i32 1, ptr %6, align 4
  br label %36

35:                                               ; preds = %28, %23
  store i32 0, ptr %6, align 4
  br label %36

36:                                               ; preds = %35, %33
  call void @llvm.lifetime.end.p0(i64 4, ptr %5) #9
  %37 = load i32, ptr %6, align 4
  switch i32 %37, label %58 [
    i32 0, label %38
  ]

38:                                               ; preds = %36
  br label %57

39:                                               ; preds = %17
  call void @llvm.lifetime.start.p0(i64 4, ptr %7) #9
  %40 = load i64, ptr %4, align 8, !tbaa !28
  %41 = trunc i64 %40 to i32
  %42 = sub nsw i32 0, %41
  store i32 %42, ptr %7, align 4, !tbaa !21
  %43 = load i32, ptr %7, align 4, !tbaa !21
  %44 = icmp slt i32 %43, 0
  br i1 %44, label %45, label %53

45:                                               ; preds = %39
  %46 = load i32, ptr %7, align 4, !tbaa !21
  %47 = sub nsw i32 0, %46
  %48 = zext i32 %47 to i64
  %49 = load i64, ptr %4, align 8, !tbaa !28
  %50 = icmp eq i64 %48, %49
  br i1 %50, label %51, label %53

51:                                               ; preds = %45
  %52 = load i32, ptr %7, align 4, !tbaa !21
  store i32 %52, ptr %2, align 4
  store i32 1, ptr %6, align 4
  br label %54

53:                                               ; preds = %45, %39
  store i32 0, ptr %6, align 4
  br label %54

54:                                               ; preds = %53, %51
  call void @llvm.lifetime.end.p0(i64 4, ptr %7) #9
  %55 = load i32, ptr %6, align 4
  switch i32 %55, label %58 [
    i32 0, label %56
  ]

56:                                               ; preds = %54
  br label %57

57:                                               ; preds = %56, %38
  store i32 0, ptr %6, align 4
  br label %58

58:                                               ; preds = %57, %54, %36
  call void @llvm.lifetime.end.p0(i64 8, ptr %4) #9
  %59 = load i32, ptr %6, align 4
  switch i32 %59, label %66 [
    i32 0, label %60
    i32 1, label %64
  ]

60:                                               ; preds = %58
  br label %61

61:                                               ; preds = %60, %13
  br label %62

62:                                               ; preds = %61
  %63 = call ptr @__cxa_allocate_exception(i64 8) #9
  store ptr @.str.8, ptr %63, align 16, !tbaa !23
  call void @__cxa_throw(ptr %63, ptr @_ZTIPKc, ptr null) #10
  unreachable

64:                                               ; preds = %58, %12
  %65 = load i32, ptr %2, align 4
  ret i32 %65

66:                                               ; preds = %58
  unreachable
}

; Function Attrs: mustprogress uwtable
define noundef i32 @_ZNK10BigInteger5toIntEv(ptr noundef nonnull align 8 dereferenceable(24) %0) #0 align 2 {
  %2 = alloca ptr, align 8
  store ptr %0, ptr %2, align 8, !tbaa !6
  %3 = load ptr, ptr %2, align 8
  %4 = call noundef i32 @_ZNK10BigInteger24convertToSignedPrimitiveIijEET_v(ptr noundef nonnull align 8 dereferenceable(24) %3)
  ret i32 %4
}