; Function Attrs: mustprogress uwtable
define noundef i32 @_ZNK10BigInteger5toIntEv(ptr noundef nonnull readonly align 8 captures(none) dereferenceable(24) %0) local_unnamed_addr #0 align 2 {
  %2 = load i32, ptr %0, align 8, !tbaa !6
  %3 = icmp eq i32 %2, 0
  br i1 %3, label %_ZNK10BigInteger24convertToSignedPrimitiveIijEET_v.exit, label %4

4:                                                ; preds = %1
  %5 = getelementptr inbounds nuw i8, ptr %0, i64 12
  %6 = load i32, ptr %5, align 4, !tbaa !16
  %7 = icmp eq i32 %6, 1
  br i1 %7, label %_ZNK11BigUnsigned8getBlockEj.exit.i, label %17

_ZNK11BigUnsigned8getBlockEj.exit.i:              ; preds = %4
  %8 = getelementptr inbounds nuw i8, ptr %0, i64 16
  %9 = load ptr, ptr %8, align 8, !tbaa !18
  %10 = load i64, ptr %9, align 8, !tbaa !19
  %11 = icmp eq i32 %2, 1
  %12 = trunc i64 %10 to i32
  br i1 %11, label %13, label %.critedge.i

13:                                               ; preds = %_ZNK11BigUnsigned8getBlockEj.exit.i
  %or.cond.i = icmp ult i64 %10, 2147483648
  br i1 %or.cond.i, label %_ZNK10BigInteger24convertToSignedPrimitiveIijEET_v.exit, label %17

.critedge.i:                                      ; preds = %_ZNK11BigUnsigned8getBlockEj.exit.i
  %14 = sub nsw i32 0, %12
  %15 = icmp sgt i32 %12, 0
  %16 = icmp ult i64 %10, 4294967296
  %or.cond19.i = and i1 %16, %15
  br i1 %or.cond19.i, label %_ZNK10BigInteger24convertToSignedPrimitiveIijEET_v.exit, label %17

17:                                               ; preds = %.critedge.i, %13, %4
  %18 = tail call ptr @__cxa_allocate_exception(i64 8) #11
  store ptr @.str.8, ptr %18, align 16, !tbaa !24
  tail call void @__cxa_throw(ptr nonnull %18, ptr nonnull @_ZTIPKc, ptr null) #12
  unreachable

_ZNK10BigInteger24convertToSignedPrimitiveIijEET_v.exit: ; preds = %1, %13, %.critedge.i
  %.0.i = phi i32 [ %14, %.critedge.i ], [ 0, %1 ], [ %12, %13 ]
  ret i32 %.0.i
}